target datalayout = "e-m:e-p270:32:32-p271:32:32-p272:64:64-i64:64-i128:128-f80:128-n8:16:32:64-S128"
target triple = "x86_64-pc-linux-gnu"

%struct.gres_state = type { i32, i32, ptr, ptr, i32 }
%struct.gres_job_state = type { i32, ptr, i16, i16, i64, i64, i64, i64, i64, i16, i16, i64, i32, ptr, ptr, ptr, ptr, i32, i64, i32, ptr, ptr, ptr, ptr, ptr, ptr }

; Function Attrs: nounwind uwtable
define internal i32 @_accumulate_gres_device_req(ptr noundef %0, ptr noundef %1) #0 {
  %3 = alloca ptr, align 8
  %4 = alloca ptr, align 8
  %5 = alloca ptr, align 8
  %6 = alloca ptr, align 8
  %7 = alloca ptr, align 8
  %8 = alloca ptr, align 8
  %9 = alloca ptr, align 8
  %10 = alloca ptr, align 8
  store ptr %0, ptr %3, align 8
  store ptr %1, ptr %4, align 8
  call void @llvm.lifetime.start.p0(i64 8, ptr %5) #3
  %11 = load ptr, ptr %3, align 8
  store ptr %11, ptr %5, align 8
  call void @llvm.lifetime.start.p0(i64 8, ptr %6) #3
  call void @llvm.lifetime.start.p0(i64 8, ptr %7) #3
  %12 = load ptr, ptr %4, align 8
  store ptr %12, ptr %7, align 8
  %13 = load ptr, ptr %7, align 8
  %14 = load ptr, ptr %5, align 8
  %15 = getelementptr inbounds nuw %struct.gres_state, ptr %14, i32 0, i32 1
  %16 = call ptr @slurm_list_find_first(ptr noundef %13, ptr noundef @slurm_gres_find_id, ptr noundef %15)
  store ptr %16, ptr %6, align 8
  %17 = icmp ne ptr %16, null
  br i1 %17, label %18, label %60

18:                                               ; preds = %2
  call void @llvm.lifetime.start.p0(i64 8, ptr %8) #3
  %19 = load ptr, ptr %6, align 8
  %20 = getelementptr inbounds nuw %struct.gres_state, ptr %19, i32 0, i32 2
  %21 = load ptr, ptr %20, align 8
  store ptr %21, ptr %8, align 8
  call void @llvm.lifetime.start.p0(i64 8, ptr %9) #3
  %22 = load ptr, ptr %5, align 8
  %23 = getelementptr inbounds nuw %struct.gres_state, ptr %22, i32 0, i32 2
  %24 = load ptr, ptr %23, align 8
  store ptr %24, ptr %9, align 8
  %25 = load ptr, ptr %9, align 8
  %26 = getelementptr inbounds nuw %struct.gres_job_state, ptr %25, i32 0, i32 4
  %27 = load i64, ptr %26, align 8
  %28 = load ptr, ptr %8, align 8
  %29 = getelementptr inbounds nuw %struct.gres_job_state, ptr %28, i32 0, i32 4
  %30 = load i64, ptr %29, align 8
  %31 = add i64 %30, %27
  store i64 %31, ptr %29, align 8
  %32 = load ptr, ptr %9, align 8
  %33 = getelementptr inbounds nuw %struct.gres_job_state, ptr %32, i32 0, i32 5
  %34 = load i64, ptr %33, align 8
  %35 = load ptr, ptr %8, align 8
  %36 = getelementptr inbounds nuw %struct.gres_job_state, ptr %35, i32 0, i32 5
  %37 = load i64, ptr %36, align 8
  %38 = add i64 %37, %34
  store i64 %38, ptr %36, align 8
  %39 = load ptr, ptr %9, align 8
  %40 = getelementptr inbounds nuw %struct.gres_job_state, ptr %39, i32 0, i32 6
  %41 = load i64, ptr %40, align 8
  %42 = load ptr, ptr %8, align 8
  %43 = getelementptr inbounds nuw %struct.gres_job_state, ptr %42, i32 0, i32 6
  %44 = load i64, ptr %43, align 8
  %45 = add i64 %44, %41
  store i64 %45, ptr %43, align 8
  %46 = load ptr, ptr %9, align 8
  %47 = getelementptr inbounds nuw %struct.gres_job_state, ptr %46, i32 0, i32 7
  %48 = load i64, ptr %47, align 8
  %49 = load ptr, ptr %8, align 8
  %50 = getelementptr inbounds nuw %struct.gres_job_state, ptr %49, i32 0, i32 7
  %51 = load i64, ptr %50, align 8
  %52 = add i64 %51, %48
  store i64 %52, ptr %50, align 8
  %53 = load ptr, ptr %9, align 8
  %54 = getelementptr inbounds nuw %struct.gres_job_state, ptr %53, i32 0, i32 18
  %55 = load i64, ptr %54, align 8
  %56 = load ptr, ptr %8, align 8
  %57 = getelementptr inbounds nuw %struct.gres_job_state, ptr %56, i32 0, i32 18
  %58 = load i64, ptr %57, align 8
  %59 = add i64 %58, %55
  store i64 %59, ptr %57, align 8
  call void @llvm.lifetime.end.p0(i64 8, ptr %9) #3
  call void @llvm.lifetime.end.p0(i64 8, ptr %8) #3
  br label %74

60:                                               ; preds = %2
  call void @llvm.lifetime.start.p0(i64 8, ptr %10) #3
  %61 = load ptr, ptr %5, align 8
  %62 = getelementptr inbounds nuw %struct.gres_state, ptr %61, i32 0, i32 2
  %63 = load ptr, ptr %62, align 8
  %64 = call ptr @gres_job_state_dup(ptr noundef %63)
  store ptr %64, ptr %10, align 8
  %65 = load ptr, ptr %10, align 8
  %66 = getelementptr inbounds nuw %struct.gres_job_state, ptr %65, i32 0, i32 1
  call void @slurm_xfree(ptr noundef %66)
  %67 = load ptr, ptr %10, align 8
  %68 = getelementptr inbounds nuw %struct.gres_job_state, ptr %67, i32 0, i32 0
  store i32 0, ptr %68, align 8
  %69 = load ptr, ptr %5, align 8
  %70 = load ptr, ptr %10, align 8
  %71 = call ptr @gres_create_state(ptr noundef %69, i32 noundef 0, i32 noundef 2, ptr noundef %70)
  store ptr %71, ptr %6, align 8
  %72 = load ptr, ptr %7, align 8
  %73 = load ptr, ptr %6, align 8
  call void @slurm_list_append(ptr noundef %72, ptr noundef %73)
  call void @llvm.lifetime.end.p0(i64 8, ptr %10) #3
  br label %74

74:                                               ; preds = %60, %18
  call void @llvm.lifetime.end.p0(i64 8, ptr %7) #3
  call void @llvm.lifetime.end.p0(i64 8, ptr %6) #3
  call void @llvm.lifetime.end.p0(i64 8, ptr %5) #3
  ret i32 0
}