; Function Attrs: nounwind uwtable
define internal noundef i32 @_accumulate_gres_device_req(ptr noundef %0, ptr noundef %1) #0 {
  %3 = getelementptr inbounds nuw i8, ptr %0, i64 4
  %4 = tail call ptr @slurm_list_find_first(ptr noundef %1, ptr noundef nonnull @slurm_gres_find_id, ptr noundef nonnull %3) #4
  %.not = icmp eq ptr %4, null
  br i1 %.not, label %35, label %5

5:                                                ; preds = %2
  %6 = getelementptr inbounds nuw i8, ptr %4, i64 8
  %7 = load ptr, ptr %6, align 8
  %8 = getelementptr inbounds nuw i8, ptr %0, i64 8
  %9 = load ptr, ptr %8, align 8
  %10 = getelementptr inbounds nuw i8, ptr %9, i64 24
  %11 = load i64, ptr %10, align 8
  %12 = getelementptr inbounds nuw i8, ptr %7, i64 24
  %13 = load i64, ptr %12, align 8
  %14 = add i64 %13, %11
  store i64 %14, ptr %12, align 8
  %15 = getelementptr inbounds nuw i8, ptr %9, i64 32
  %16 = load i64, ptr %15, align 8
  %17 = getelementptr inbounds nuw i8, ptr %7, i64 32
  %18 = load i64, ptr %17, align 8
  %19 = add i64 %18, %16
  store i64 %19, ptr %17, align 8
  %20 = getelementptr inbounds nuw i8, ptr %9, i64 40
  %21 = load i64, ptr %20, align 8
  %22 = getelementptr inbounds nuw i8, ptr %7, i64 40
  %23 = load i64, ptr %22, align 8
  %24 = add i64 %23, %21
  store i64 %24, ptr %22, align 8
  %25 = getelementptr inbounds nuw i8, ptr %9, i64 48
  %26 = load i64, ptr %25, align 8
  %27 = getelementptr inbounds nuw i8, ptr %7, i64 48
  %28 = load i64, ptr %27, align 8
  %29 = add i64 %28, %26
  store i64 %29, ptr %27, align 8
  %30 = getelementptr inbounds nuw i8, ptr %9, i64 128
  %31 = load i64, ptr %30, align 8
  %32 = getelementptr inbounds nuw i8, ptr %7, i64 128
  %33 = load i64, ptr %32, align 8
  %34 = add i64 %33, %31
  store i64 %34, ptr %32, align 8
  br label %41

35:                                               ; preds = %2
  %36 = getelementptr inbounds nuw i8, ptr %0, i64 8
  %37 = load ptr, ptr %36, align 8
  %38 = tail call ptr @gres_job_state_dup(ptr noundef %37) #4
  %39 = getelementptr inbounds nuw i8, ptr %38, i64 8
  tail call void @slurm_xfree(ptr noundef nonnull %39) #4
  store i32 0, ptr %38, align 8
  %40 = tail call ptr @gres_create_state(ptr noundef nonnull %0, i32 noundef 0, i32 noundef 2, ptr noundef nonnull %38) #4
  tail call void @slurm_list_append(ptr noundef %1, ptr noundef %40) #4
  br label %41

41:                                               ; preds = %35, %5
  ret i32 0
}